target datalayout = "e-m:e-p270:32:32-p271:32:32-p272:64:64-i64:64-i128:128-f80:128-n8:16:32:64-S128"
target triple = "x86_64-pc-linux-gnu"

%struct.PerfDataPrologue = type { i32, i8, i8, i8, i8, i32, i32, i64, i32, i32 }
%class.MutexLocker = type { %class.MutexLockerImpl }
%class.MutexLockerImpl = type { ptr }

@_ZN10PerfMemory6_startE = hidden global ptr null, align 8
@_ZN10PerfMemory4_endE = hidden global ptr null, align 8
@_ZN10PerfMemory4_topE = hidden global ptr null, align 8
@_ZN10PerfMemory9_prologueE = hidden global ptr null, align 8
@UsePerfData = external global i8, align 1
@PerfDataMemAlloc_lock = external global ptr, align 8

; Function Attrs: mustprogress nounwind uwtable
define linkonce_odr hidden void @_ZN15MutexLockerImplD2Ev(ptr noundef nonnull align 8 dereferenceable(8) %0) unnamed_addr #1 comdat align 2 {
  %2 = alloca ptr, align 8
  store ptr %0, ptr %2, align 8
  %3 = load ptr, ptr %2, align 8
  %4 = getelementptr inbounds %class.MutexLockerImpl, ptr %3, i32 0, i32 0
  %5 = load ptr, ptr %4, align 8
  %6 = icmp ne ptr %5, null
  br i1 %6, label %7, label %10

7:                                                ; preds = %1
  %8 = getelementptr inbounds %class.MutexLockerImpl, ptr %3, i32 0, i32 0
  %9 = load ptr, ptr %8, align 8
  call void @_ZN5Mutex6unlockEv(ptr noundef nonnull align 8 dereferenceable(104) %9)
  br label %10

10:                                               ; preds = %7, %1
  ret void
}

; Function Attrs: mustprogress nounwind uwtable
define linkonce_odr hidden void @_ZN15MutexLockerImplC2EP5MutexNS0_18SafepointCheckFlagE(ptr noundef nonnull align 8 dereferenceable(8) %0, ptr noundef %1, i32 noundef %2) unnamed_addr #1 comdat align 2 {
  %4 = alloca ptr, align 8
  %5 = alloca ptr, align 8
  %6 = alloca i32, align 4
  %7 = alloca i8, align 1
  store ptr %0, ptr %4, align 8
  store ptr %1, ptr %5, align 8
  store i32 %2, ptr %6, align 4
  %8 = load ptr, ptr %4, align 8
  %9 = getelementptr inbounds %class.MutexLockerImpl, ptr %8, i32 0, i32 0
  %10 = load ptr, ptr %5, align 8
  store ptr %10, ptr %9, align 8
  %11 = load i32, ptr %6, align 4
  %12 = icmp eq i32 %11, 1
  %13 = zext i1 %12 to i8
  store i8 %13, ptr %7, align 1
  %14 = getelementptr inbounds %class.MutexLockerImpl, ptr %8, i32 0, i32 0
  %15 = load ptr, ptr %14, align 8
  %16 = icmp ne ptr %15, null
  br i1 %16, label %17, label %27

17:                                               ; preds = %3
  %18 = load i8, ptr %7, align 1
  %19 = trunc i8 %18 to i1
  br i1 %19, label %20, label %23

20:                                               ; preds = %17
  %21 = getelementptr inbounds %class.MutexLockerImpl, ptr %8, i32 0, i32 0
  %22 = load ptr, ptr %21, align 8
  call void @_ZN5Mutex28lock_without_safepoint_checkEv(ptr noundef nonnull align 8 dereferenceable(104) %22)
  br label %26

23:                                               ; preds = %17
  %24 = getelementptr inbounds %class.MutexLockerImpl, ptr %8, i32 0, i32 0
  %25 = load ptr, ptr %24, align 8
  call void @_ZN5Mutex4lockEv(ptr noundef nonnull align 8 dereferenceable(104) %25)
  br label %26

26:                                               ; preds = %23, %20
  br label %27

27:                                               ; preds = %26, %3
  ret void
}

; Function Attrs: mustprogress nounwind uwtable
define linkonce_odr hidden void @_ZN11MutexLockerD2Ev(ptr noundef nonnull align 8 dereferenceable(8) %0) unnamed_addr #1 comdat align 2 {
  %2 = alloca ptr, align 8
  store ptr %0, ptr %2, align 8
  %3 = load ptr, ptr %2, align 8
  call void @_ZN15MutexLockerImplD2Ev(ptr noundef nonnull align 8 dereferenceable(8) %3) #5
  ret void
}

; Function Attrs: mustprogress nounwind uwtable
define linkonce_odr hidden noundef i64 @_ZN10PerfMemory4usedEv() #1 comdat align 2 {
  %1 = load ptr, ptr @_ZN10PerfMemory4_topE, align 8
  %2 = load ptr, ptr @_ZN10PerfMemory6_startE, align 8
  %3 = ptrtoint ptr %1 to i64
  %4 = ptrtoint ptr %2 to i64
  %5 = sub i64 %3, %4
  ret i64 %5
}

; Function Attrs: mustprogress nounwind uwtable
define linkonce_odr hidden void @_ZN11MutexLockerC2EP5MutexNS0_18SafepointCheckFlagE(ptr noundef nonnull align 8 dereferenceable(8) %0, ptr noundef %1, i32 noundef %2) unnamed_addr #1 comdat align 2 {
  %4 = alloca ptr, align 8
  %5 = alloca ptr, align 8
  %6 = alloca i32, align 4
  store ptr %0, ptr %4, align 8
  store ptr %1, ptr %5, align 8
  store i32 %2, ptr %6, align 4
  %7 = load ptr, ptr %4, align 8
  %8 = load ptr, ptr %5, align 8
  %9 = load i32, ptr %6, align 4
  call void @_ZN15MutexLockerImplC2EP5MutexNS0_18SafepointCheckFlagE(ptr noundef nonnull align 8 dereferenceable(8) %7, ptr noundef %8, i32 noundef %9)
  ret void
}

; Function Attrs: mustprogress nounwind uwtable
define hidden noundef ptr @_ZN10PerfMemory5allocEm(i64 noundef %0) #1 align 2 {
  %2 = alloca ptr, align 8
  %3 = alloca i64, align 8
  %4 = alloca %class.MutexLocker, align 8
  %5 = alloca i32, align 4
  %6 = alloca ptr, align 8
  store i64 %0, ptr %3, align 8
  %7 = load i8, ptr @UsePerfData, align 1
  %8 = trunc i8 %7 to i1
  br i1 %8, label %10, label %9

9:                                                ; preds = %1
  store ptr null, ptr %2, align 8
  br label %41

10:                                               ; preds = %1
  %11 = load ptr, ptr @PerfDataMemAlloc_lock, align 8
  call void @_ZN11MutexLockerC2EP5MutexNS0_18SafepointCheckFlagE(ptr noundef nonnull align 8 dereferenceable(8) %4, ptr noundef %11, i32 noundef 0)
  %12 = load ptr, ptr @_ZN10PerfMemory4_topE, align 8
  %13 = load i64, ptr %3, align 8
  %14 = getelementptr inbounds i8, ptr %12, i64 %13
  %15 = load ptr, ptr @_ZN10PerfMemory4_endE, align 8
  %16 = icmp uge ptr %14, %15
  br i1 %16, label %17, label %24

17:                                               ; preds = %10
  %18 = load i64, ptr %3, align 8
  %19 = trunc i64 %18 to i32
  %20 = load ptr, ptr @_ZN10PerfMemory9_prologueE, align 8
  %21 = getelementptr inbounds %struct.PerfDataPrologue, ptr %20, i32 0, i32 6
  %22 = load i32, ptr %21, align 4
  %23 = add nsw i32 %22, %19
  store i32 %23, ptr %21, align 4
  store ptr null, ptr %2, align 8
  store i32 1, ptr %5, align 4
  br label %40

24:                                               ; preds = %10
  %25 = load ptr, ptr @_ZN10PerfMemory4_topE, align 8
  store ptr %25, ptr %6, align 8
  %26 = load i64, ptr %3, align 8
  %27 = load ptr, ptr @_ZN10PerfMemory4_topE, align 8
  %28 = getelementptr inbounds i8, ptr %27, i64 %26
  store ptr %28, ptr @_ZN10PerfMemory4_topE, align 8
  %29 = call noundef i64 @_ZN10PerfMemory4usedEv()
  %30 = trunc i64 %29 to i32
  %31 = load ptr, ptr @_ZN10PerfMemory9_prologueE, align 8
  %32 = getelementptr inbounds %struct.PerfDataPrologue, ptr %31, i32 0, i32 5
  store i32 %30, ptr %32, align 8
  %33 = load ptr, ptr @_ZN10PerfMemory9_prologueE, align 8
  %34 = getelementptr inbounds %struct.PerfDataPrologue, ptr %33, i32 0, i32 9
  %35 = load i32, ptr %34, align 4
  %36 = add nsw i32 %35, 1
  %37 = load ptr, ptr @_ZN10PerfMemory9_prologueE, align 8
  %38 = getelementptr inbounds %struct.PerfDataPrologue, ptr %37, i32 0, i32 9
  store i32 %36, ptr %38, align 4
  %39 = load ptr, ptr %6, align 8
  store ptr %39, ptr %2, align 8
  store i32 1, ptr %5, align 4
  br label %40

40:                                               ; preds = %24, %17
  call void @_ZN11MutexLockerD2Ev(ptr noundef nonnull align 8 dereferenceable(8) %4) #5
  br label %41

41:                                               ; preds = %40, %9
  %42 = load ptr, ptr %2, align 8
  ret ptr %42
}