; Function Attrs: mustprogress nounwind uwtable
define hidden noundef ptr @_ZN10PerfMemory5allocEm(i64 noundef %0) local_unnamed_addr #0 align 2 {
  %2 = load i8, ptr @UsePerfData, align 1
  %3 = trunc i8 %2 to i1
  br i1 %3, label %4, label %_ZN11MutexLockerD2Ev.exit

4:                                                ; preds = %1
  %5 = load ptr, ptr @PerfDataMemAlloc_lock, align 8
  %.not.i.i = icmp eq ptr %5, null
  br i1 %.not.i.i, label %_ZN11MutexLockerC2EP5MutexNS0_18SafepointCheckFlagE.exit, label %6

6:                                                ; preds = %4
  tail call void @_ZN5Mutex4lockEv(ptr noundef nonnull align 8 dereferenceable(104) %5) #6
  br label %_ZN11MutexLockerC2EP5MutexNS0_18SafepointCheckFlagE.exit

_ZN11MutexLockerC2EP5MutexNS0_18SafepointCheckFlagE.exit: ; preds = %4, %6
  %7 = load ptr, ptr @_ZN10PerfMemory4_topE, align 8
  %8 = getelementptr inbounds i8, ptr %7, i64 %0
  %9 = load ptr, ptr @_ZN10PerfMemory4_endE, align 8
  %.not = icmp ult ptr %8, %9
  br i1 %.not, label %14, label %10

10:                                               ; preds = %_ZN11MutexLockerC2EP5MutexNS0_18SafepointCheckFlagE.exit
  %11 = trunc i64 %0 to i32
  %12 = load ptr, ptr @_ZN10PerfMemory9_prologueE, align 8
  %13 = getelementptr inbounds i8, ptr %12, i64 12
  br label %23

14:                                               ; preds = %_ZN11MutexLockerC2EP5MutexNS0_18SafepointCheckFlagE.exit
  store ptr %8, ptr @_ZN10PerfMemory4_topE, align 8
  %15 = load ptr, ptr @_ZN10PerfMemory6_startE, align 8
  %16 = ptrtoint ptr %8 to i64
  %17 = ptrtoint ptr %15 to i64
  %18 = sub i64 %16, %17
  %19 = trunc i64 %18 to i32
  %20 = load ptr, ptr @_ZN10PerfMemory9_prologueE, align 8
  %21 = getelementptr inbounds i8, ptr %20, i64 8
  store i32 %19, ptr %21, align 8
  %22 = getelementptr inbounds i8, ptr %20, i64 28
  br label %23

23:                                               ; preds = %14, %10
  %.sink = phi ptr [ %22, %14 ], [ %13, %10 ]
  %.sink8 = phi i32 [ 1, %14 ], [ %11, %10 ]
  %.0 = phi ptr [ %7, %14 ], [ null, %10 ]
  %24 = load i32, ptr %.sink, align 4
  %25 = add nsw i32 %24, %.sink8
  store i32 %25, ptr %.sink, align 4
  br i1 %.not.i.i, label %_ZN11MutexLockerD2Ev.exit, label %26

26:                                               ; preds = %23
  tail call void @_ZN5Mutex6unlockEv(ptr noundef nonnull align 8 dereferenceable(104) %5) #6
  br label %_ZN11MutexLockerD2Ev.exit

_ZN11MutexLockerD2Ev.exit:                        ; preds = %26, %23, %1
  %.1 = phi ptr [ null, %1 ], [ %.0, %23 ], [ %.0, %26 ]
  ret ptr %.1
}